; Function Attrs: mustprogress uwtable
define dso_local noundef zeroext i1 @_ZN7DepsLog10RecordDepsEP4NodelRKSt6vectorIS1_SaIS1_EE(ptr noundef nonnull align 8 dereferenceable(96) %0, ptr noundef %1, i64 noundef %2, ptr noundef nonnull readonly align 8 captures(none) dereferenceable(24) %3) local_unnamed_addr #1 align 2 {
  %5 = getelementptr inbounds nuw i8, ptr %3, i64 8
  %6 = load ptr, ptr %5, align 8, !tbaa !69
  %7 = load ptr, ptr %3, align 8, !tbaa !28
  %8 = ptrtoint ptr %6 to i64
  %9 = ptrtoint ptr %7 to i64
  %10 = sub i64 %8, %9
  %11 = lshr exact i64 %10, 3
  %12 = trunc i64 %11 to i32
  %13 = tail call noundef zeroext i1 @_ZN7DepsLog10RecordDepsEP4NodeliPKS1_(ptr noundef nonnull align 8 dereferenceable(96) %0, ptr noundef %1, i64 noundef %2, i32 noundef %12, ptr noundef %7)
  ret i1 %13
}